(lp0
((I92
I277
tp1
I1
I01
tp2
a((I75
I263
tp3
I1
I01
tp4
a((I86
I254
tp5
I1
I01
tp6
a((I119
I263
tp7
I1
I01
tp8
a((I139
I255
tp9
I1
I01
tp10
a((I156
I205
tp11
I1
I01
tp12
a((I153
I196
tp13
I1
I01
tp14
a((I148
I152
tp15
I1
I01
tp16
a((I126
I162
tp17
I1
I01
tp18
a((I123
I192
tp19
I1
I01
tp20
a((I145
I213
tp21
I3
I01
tp22
a((I168
I207
tp23
I1
I01
tp24
a((I169
I232
tp25
I1
I01
tp26
a((I154
I222
tp27
I1
I01
tp28
a((I119
I229
tp29
I1
I01
tp30
a((I67
I230
tp31
I1
I01
tp32
a((I57
I197
tp33
I1
I01
tp34
a((I60
I172
tp35
I1
I01
tp36
a((I91
I182
tp37
I1
I01
tp38
a((I92
I215
tp39
I1
I01
tp40
a((I151
I212
tp41
I3
I01
tp42
a((I150
I199
tp43
I3
I01
tp44
a((I172
I175
tp45
I1
I01
tp46
a((I152
I183
tp47
I1
I01
tp48
a((I148
I210
tp49
I1
I01
tp50
a((I149
I278
tp51
I1
I01
tp52
a((I125
I291
tp53
I1
I01
tp54
a((I94
I281
tp55
I3
I01
tp56
a((I86
I316
tp57
I1
I01
tp58
a((I92
I287
tp59
I1
I01
tp60
a((I114
I269
tp61
I3
I01
tp62
a((I144
I284
tp63
I3
I01
tp64
a((I146
I286
tp65
I1
I01
tp66
a((I122
I268
tp67
I1
I01
tp68
a.