(lp0
((I83
I412
tp1
I1
I01
tp2
a((I67
I396
tp3
I1
I01
tp4
a((I89
I375
tp5
I1
I01
tp6
a((I127
I390
tp7
I1
I01
tp8
a((I151
I381
tp9
I1
I01
tp10
a((I147
I343
tp11
I1
I01
tp12
a((I144
I308
tp13
I1
I01
tp14
a((I144
I277
tp15
I1
I01
tp16
a((I124
I298
tp17
I1
I01
tp18
a((I122
I324
tp19
I1
I01
tp20
a((I148
I348
tp21
I3
I01
tp22
a((I174
I331
tp23
I1
I01
tp24
a((I179
I363
tp25
I1
I01
tp26
a((I148
I344
tp27
I1
I01
tp28
a((I116
I362
tp29
I1
I01
tp30
a((I65
I364
tp31
I1
I01
tp32
a((I58
I335
tp33
I1
I01
tp34
a((I58
I301
tp35
I1
I01
tp36
a((I85
I308
tp37
I1
I01
tp38
a((I88
I336
tp39
I1
I01
tp40
a((I147
I344
tp41
I3
I01
tp42
a((I139
I306
tp43
I3
I01
tp44
a((I168
I301
tp45
I1
I01
tp46
a((I150
I320
tp47
I1
I01
tp48
a((I149
I347
tp49
I1
I01
tp50
a((I174
I362
tp51
I3
I01
tp52
a((I152
I378
tp53
I3
I01
tp54
a((I171
I365
tp55
I1
I01
tp56
a((I154
I374
tp57
I1
I01
tp58
a((I181
I394
tp59
I1
I01
tp60
a((I211
I414
tp61
I1
I01
tp62
a((I231
I390
tp63
I1
I01
tp64
a((I201
I380
tp65
I1
I01
tp66
a((I251
I378
tp67
I1
I01
tp68
a((I253
I351
tp69
I1
I01
tp70
a((I254
I313
tp71
I1
I01
tp72
a((I258
I284
tp73
I1
I01
tp74
a((I237
I294
tp75
I1
I01
tp76
a((I238
I323
tp77
I1
I01
tp78
a((I261
I348
tp79
I3
I01
tp80
a((I280
I328
tp81
I1
I01
tp82
a((I284
I356
tp83
I1
I01
tp84
a((I252
I339
tp85
I1
I01
tp86
a((I234
I361
tp87
I1
I01
tp88
a((I204
I312
tp89
I1
I01
tp90
a((I204
I346
tp91
I1
I01
tp92
a((I262
I346
tp93
I3
I01
tp94
a((I258
I326
tp95
I3
I01
tp96
a((I289
I299
tp97
I1
I01
tp98
a((I265
I313
tp99
I1
I01
tp100
a((I263
I342
tp101
I1
I01
tp102
a((I284
I366
tp103
I3
I01
tp104
a((I262
I376
tp105
I3
I01
tp106
a((I287
I367
tp107
I1
I01
tp108
a((I263
I377
tp109
I1
I01
tp110
a((I285
I390
tp111
I1
I01
tp112
a((I312
I408
tp113
I1
I01
tp114
a((I340
I395
tp115
I1
I01
tp116
a((I309
I382
tp117
I1
I01
tp118
a((I370
I378
tp119
I1
I01
tp120
a((I368
I346
tp121
I1
I01
tp122
a((I362
I317
tp123
I1
I01
tp124
a((I366
I284
tp125
I1
I01
tp126
a((I342
I295
tp127
I1
I01
tp128
a((I346
I328
tp129
I1
I01
tp130
a((I361
I341
tp131
I3
I01
tp132
a((I404
I329
tp133
I1
I01
tp134
a((I399
I362
tp135
I1
I01
tp136
a((I369
I343
tp137
I1
I01
tp138
a((I349
I365
tp139
I1
I01
tp140
a((I317
I310
tp141
I1
I01
tp142
a((I321
I340
tp143
I1
I01
tp144
a((I366
I343
tp145
I3
I01
tp146
a((I367
I312
tp147
I3
I01
tp148
a((I407
I307
tp149
I1
I01
tp150
a((I372
I310
tp151
I1
I01
tp152
a((I369
I346
tp153
I1
I01
tp154
a((I121
I302
tp155
I3
I01
tp156
a((I118
I268
tp157
I1
I01
tp158
a((I95
I253
tp159
I1
I01
tp160
a((I90
I281
tp161
I1
I01
tp162
a((I113
I294
tp163
I1
I01
tp164
a((I235
I298
tp165
I3
I01
tp166
a((I226
I270
tp167
I1
I01
tp168
a((I206
I257
tp169
I1
I01
tp170
a((I202
I282
tp171
I1
I01
tp172
a((I226
I297
tp173
I1
I01
tp174
a((I339
I288
tp175
I3
I01
tp176
a((I342
I266
tp177
I1
I01
tp178
a((I305
I247
tp179
I1
I01
tp180
a((I308
I276
tp181
I1
I01
tp182
a((I339
I291
tp183
I1
I01
tp184
a.