(lp0
((I221
I261
tp1
I1
I01
tp2
a((I206
I253
tp3
I1
I01
tp4
a((I257
I280
tp5
I1
I01
tp6
a((I240
I239
tp7
I1
I01
tp8
a((I248
I245
tp9
I1
I01
tp10
a((I265
I281
tp11
I3
I01
tp12
a((I281
I274
tp13
I1
I01
tp14
a((I284
I296
tp15
I1
I01
tp16
a((I288
I328
tp17
I1
I01
tp18
a((I267
I316
tp19
I1
I01
tp20
a((I260
I288
tp21
I1
I01
tp22
a((I292
I299
tp23
I3
I01
tp24
a((I291
I336
tp25
I3
I01
tp26
a((I255
I344
tp27
I1
I01
tp28
a((I237
I336
tp29
I1
I01
tp30
a((I205
I349
tp31
I1
I01
tp32
a((I183
I353
tp33
I1
I01
tp34
a((I177
I336
tp35
I1
I01
tp36
a((I196
I320
tp37
I1
I01
tp38
a((I220
I304
tp39
I1
I01
tp40
a((I226
I265
tp41
I3
I01
tp42
a((I204
I278
tp43
I1
I01
tp44
a((I230
I266
tp45
I1
I01
tp46
a.